; Function Attrs: nounwind uwtable
define nonnull ptr @l_Array_qsort_sort___at_Lean_Elab_Deriving_FromToJson_mkFromJsonBodyForInduct_mkAlts___spec__8___lambda__1___boxed(ptr noundef %0, ptr noundef %1) #0 {
  %3 = getelementptr inbounds nuw i8, ptr %0, i64 16
  %4 = load ptr, ptr %3, align 8, !tbaa !4
  %5 = getelementptr inbounds nuw i8, ptr %1, i64 16
  %6 = load ptr, ptr %5, align 8, !tbaa !4
  %7 = ptrtoint ptr %4 to i64
  %8 = and i64 %7, 1
  %9 = icmp ne i64 %8, 0
  %10 = ptrtoint ptr %6 to i64
  %11 = and i64 %10, 1
  %12 = icmp ne i64 %11, 0
  %or.cond.i = select i1 %9, i1 %12, i1 false
  br i1 %or.cond.i, label %13, label %.critedge.i.i, !prof !17

13:                                               ; preds = %2
  %14 = icmp ult ptr %4, %6
  br label %l_Array_qsort_sort___at_Lean_Elab_Deriving_FromToJson_mkFromJsonBodyForInduct_mkAlts___spec__8___lambda__1.exit

.critedge.i.i:                                    ; preds = %2
  %15 = tail call zeroext i1 @lean_nat_big_lt(ptr noundef %4, ptr noundef %6) #5
  br label %l_Array_qsort_sort___at_Lean_Elab_Deriving_FromToJson_mkFromJsonBodyForInduct_mkAlts___spec__8___lambda__1.exit

l_Array_qsort_sort___at_Lean_Elab_Deriving_FromToJson_mkFromJsonBodyForInduct_mkAlts___spec__8___lambda__1.exit: ; preds = %13, %.critedge.i.i
  %.0.i.i = phi i1 [ %14, %13 ], [ %15, %.critedge.i.i ]
  %16 = ptrtoint ptr %1 to i64
  %17 = and i64 %16, 1
  %.not = icmp eq i64 %17, 0
  br i1 %.not, label %18, label %lean_dec.exit5

18:                                               ; preds = %l_Array_qsort_sort___at_Lean_Elab_Deriving_FromToJson_mkFromJsonBodyForInduct_mkAlts___spec__8___lambda__1.exit
  %19 = load i32, ptr %1, align 4, !tbaa !8
  %20 = icmp sgt i32 %19, 1
  br i1 %20, label %21, label %23, !prof !11

21:                                               ; preds = %18
  %22 = add nsw i32 %19, -1
  store i32 %22, ptr %1, align 4, !tbaa !8
  br label %lean_dec.exit5

23:                                               ; preds = %18
  %.not.i = icmp eq i32 %19, 0
  br i1 %.not.i, label %lean_dec.exit5, label %24

24:                                               ; preds = %23
  tail call void @lean_dec_ref_cold(ptr noundef nonnull %1) #5
  br label %lean_dec.exit5

lean_dec.exit5:                                   ; preds = %24, %23, %21, %l_Array_qsort_sort___at_Lean_Elab_Deriving_FromToJson_mkFromJsonBodyForInduct_mkAlts___spec__8___lambda__1.exit
  %25 = ptrtoint ptr %0 to i64
  %26 = and i64 %25, 1
  %.not8 = icmp eq i64 %26, 0
  br i1 %.not8, label %27, label %lean_dec.exit

27:                                               ; preds = %lean_dec.exit5
  %28 = load i32, ptr %0, align 4, !tbaa !8
  %29 = icmp sgt i32 %28, 1
  br i1 %29, label %30, label %32, !prof !11

30:                                               ; preds = %27
  %31 = add nsw i32 %28, -1
  store i32 %31, ptr %0, align 4, !tbaa !8
  br label %lean_dec.exit

32:                                               ; preds = %27
  %.not.i6 = icmp eq i32 %28, 0
  br i1 %.not.i6, label %lean_dec.exit, label %33

33:                                               ; preds = %32
  tail call void @lean_dec_ref_cold(ptr noundef nonnull %0) #5
  br label %lean_dec.exit

lean_dec.exit:                                    ; preds = %33, %32, %30, %lean_dec.exit5
  %34 = select i1 %.0.i.i, ptr inttoptr (i64 3 to ptr), ptr inttoptr (i64 1 to ptr)
  ret ptr %34
}